target datalayout = "e-m:e-p270:32:32-p271:32:32-p272:64:64-i64:64-i128:128-f80:128-n8:16:32:64-S128"
target triple = "x86_64-pc-linux-gnu"

%struct.addrinfo = type { i32, i32, i32, i32, i32, ptr, ptr, ptr }
%union.pthread_mutex_t = type { %struct.__pthread_mutex_s }
%struct.__pthread_mutex_s = type { i32, i32, i32, i32, i32, i16, i16, %struct.__pthread_internal_list }
%struct.__pthread_internal_list = type { ptr, ptr }
%union.pthread_cond_t = type { %struct.__pthread_cond_s }
%struct.__pthread_cond_s = type { %union.__atomic_wide_counter, %union.__atomic_wide_counter, [2 x i32], [2 x i32], i32, i32, [2 x i32] }
%union.__atomic_wide_counter = type { i64 }
%struct.getaddrinfo_arg = type { ptr, ptr, %struct.addrinfo, ptr, i32, i32, i32, i32, i32, %union.pthread_mutex_t, %union.pthread_cond_t }

; Function Attrs: nounwind sspstrong uwtable
define internal ptr @wait_getaddrinfo(ptr noundef %0) #0 {
  %2 = alloca ptr, align 8
  %3 = alloca ptr, align 8
  store ptr %0, ptr %2, align 8, !tbaa !26
  call void @llvm.lifetime.start.p0(i64 8, ptr %3) #24
  %4 = load ptr, ptr %2, align 8, !tbaa !26
  store ptr %4, ptr %3, align 8, !tbaa !87
  %5 = load ptr, ptr %3, align 8, !tbaa !87
  %6 = getelementptr inbounds nuw %struct.getaddrinfo_arg, ptr %5, i32 0, i32 9
  call void @rb_nativethread_lock_lock(ptr noundef %6)
  br label %7

7:                                                ; preds = %20, %1
  %8 = load ptr, ptr %3, align 8, !tbaa !87
  %9 = getelementptr inbounds nuw %struct.getaddrinfo_arg, ptr %8, i32 0, i32 7
  %10 = load i32, ptr %9, align 4, !tbaa !89
  %11 = icmp ne i32 %10, 0
  br i1 %11, label %18, label %12

12:                                               ; preds = %7
  %13 = load ptr, ptr %3, align 8, !tbaa !87
  %14 = getelementptr inbounds nuw %struct.getaddrinfo_arg, ptr %13, i32 0, i32 8
  %15 = load i32, ptr %14, align 8, !tbaa !94
  %16 = icmp ne i32 %15, 0
  %17 = xor i1 %16, true
  br label %18

18:                                               ; preds = %12, %7
  %19 = phi i1 [ false, %7 ], [ %17, %12 ]
  br i1 %19, label %20, label %25

20:                                               ; preds = %18
  %21 = load ptr, ptr %3, align 8, !tbaa !87
  %22 = getelementptr inbounds nuw %struct.getaddrinfo_arg, ptr %21, i32 0, i32 10
  %23 = load ptr, ptr %3, align 8, !tbaa !87
  %24 = getelementptr inbounds nuw %struct.getaddrinfo_arg, ptr %23, i32 0, i32 9
  call void @rb_native_cond_wait(ptr noundef %22, ptr noundef %24)
  br label %7, !llvm.loop !182

25:                                               ; preds = %18
  %26 = load ptr, ptr %3, align 8, !tbaa !87
  %27 = getelementptr inbounds nuw %struct.getaddrinfo_arg, ptr %26, i32 0, i32 9
  call void @rb_nativethread_lock_unlock(ptr noundef %27)
  call void @llvm.lifetime.end.p0(i64 8, ptr %3) #24
  ret ptr null
}